; Function Attrs: mustprogress uwtable
define hidden void @_ZN17duckdb_libpgquery11core_yyfreeEPvS0_(ptr noundef %0, ptr noundef readnone captures(none) %1) local_unnamed_addr #0 {
  %.not = icmp eq ptr %0, null
  br i1 %.not, label %4, label %3

3:                                                ; preds = %2
  tail call void @_ZN17duckdb_libpgquery5pfreeEPv(ptr noundef nonnull %0)
  br label %4

4:                                                ; preds = %3, %2
  ret void
}